target datalayout = "e-m:e-p270:32:32-p271:32:32-p272:64:64-i64:64-i128:128-f80:128-n8:16:32:64-S128"
target triple = "x86_64-pc-linux-gnu"

; Function Attrs: inlinehint mustprogress nounwind uwtable
define internal noundef signext i8 @_ZL9U_FAILURE10UErrorCode(i32 noundef %0) #2 {
  %2 = alloca i32, align 4
  store i32 %0, ptr %2, align 4, !tbaa !15
  %3 = load i32, ptr %2, align 4, !tbaa !15
  %4 = icmp sgt i32 %3, 0
  %5 = zext i1 %4 to i8
  ret i8 %5
}

; Function Attrs: mustprogress uwtable
define ptr @ulocale_getUnicodeKeywords_77(ptr noundef %0, ptr noundef %1) #1 {
  %3 = alloca ptr, align 8
  %4 = alloca ptr, align 8
  %5 = alloca ptr, align 8
  store ptr %0, ptr %4, align 8, !tbaa !28
  store ptr %1, ptr %5, align 8, !tbaa !22
  %6 = load ptr, ptr %5, align 8, !tbaa !22
  %7 = load i32, ptr %6, align 4, !tbaa !15
  %8 = call noundef signext i8 @_ZL9U_FAILURE10UErrorCode(i32 noundef %7)
  %9 = icmp ne i8 %8, 0
  br i1 %9, label %10, label %11

10:                                               ; preds = %2
  store ptr null, ptr %3, align 8
  br label %22

11:                                               ; preds = %2
  %12 = load ptr, ptr %4, align 8, !tbaa !28
  %13 = icmp eq ptr %12, null
  br i1 %13, label %14, label %16

14:                                               ; preds = %11
  %15 = load ptr, ptr %5, align 8, !tbaa !22
  store i32 1, ptr %15, align 4, !tbaa !15
  store ptr null, ptr %3, align 8
  br label %22

16:                                               ; preds = %11
  %17 = load ptr, ptr %4, align 8, !tbaa !28
  %18 = load ptr, ptr %5, align 8, !tbaa !22
  %19 = call noundef ptr @_ZNK6icu_776Locale21createUnicodeKeywordsER10UErrorCode(ptr noundef nonnull align 8 dereferenceable(217) %17, ptr noundef nonnull align 4 dereferenceable(4) %18)
  %20 = load ptr, ptr %5, align 8, !tbaa !22
  %21 = call ptr @uenum_openFromStringEnumeration_77(ptr noundef %19, ptr noundef %20)
  store ptr %21, ptr %3, align 8
  br label %22

22:                                               ; preds = %16, %14, %10
  %23 = load ptr, ptr %3, align 8
  ret ptr %23
}